(dp0
S''
p1
I957
sS'concept'
p2
I4
sS'remarkable'
p3
I3
sS'keep'
p4
I5
sS'suspenseful'
p5
I3
sS'themes'
p6
I3
sS'thoughtful'
p7
I3
sS'intricate'
p8
I3
sS'particularly'
p9
I3
sS'hate'
p10
I3
sS'poorly'
p11
I5
sS'relationships'
p12
I3
sS'whose'
p13
I3
sS'young'
p14
I8
sS'finally'
p15
I5
sS'thinness'
p16
I3
sS'under'
p17
I4
sS'worth'
p18
I6
sS'lrb'
p19
I11
sS'worse'
p20
I5
sS'sitting'
p21
I4
sS'very'
p22
I19
sS'sloppy'
p23
I4
sS'every'
p24
I9
sS'awful'
p25
I3
sS'minute'
p26
I7
sS'enjoyable'
p27
I9
sS'impressive'
p28
I3
sS'die'
p29
I4
sS'relentlessly'
p30
I3
sS'try'
p31
I3
sS'engrossing'
p32
I3
sS'delightfully'
p33
I3
sS'enjoy'
p34
I6
sS'unexpected'
p35
I3
sS'tired'
p36
I3
sS'folds'
p37
I3
sS'inconsequential'
p38
I3
sS'past'
p39
I5
sS'pass'
p40
I3
sS'ugly'
p41
I4
sS'complexities'
p42
I3
sS'deeply'
p43
I12
sS'emotions'
p44
I4
sS'waiting'
p45
I4
sS'goes'
p46
I4
sS'new'
p47
I8
sS'tribute'
p48
I3
sS'ever'
p49
I9
sS'exercise'
p50
I3
sS'told'
p51
I3
sS'full'
p52
I8
sS'men'
p53
I7
sS'here'
p54
I8
sS'sequelforthesake'
p55
I3
sS'hours'
p56
I6
sS'entertain'
p57
I3
sS'sexy'
p58
I4
sS'along'
p59
I4
sS'strong'
p60
I3
sS'extreme'
p61
I3
sS'great'
p62
I15
sS'kids'
p63
I3
sS'talent'
p64
I3
sS'brilliant'
p65
I5
sS'involved'
p66
I3
sS'study'
p67
I5
sS'experience'
p68
I9
sS'credit'
p69
I4
sS'action'
p70
I13
sS'makes'
p71
I10
sS'love'
p72
I10
sS'family'
p73
I8
sS'highly'
p74
I6
sS'brought'
p75
I5
sS'wit'
p76
I5
sS'plot'
p77
I10
sS'flaws'
p78
I3
sS'takes'
p79
I4
sS'remains'
p80
I4
sS'few'
p81
I4
sS'music'
p82
I4
sS'memory'
p83
I4
sS'films'
p84
I13
sS'frida'
p85
I3
sS'tell'
p86
I4
sS'today'
p87
I3
sS'more'
p88
I30
sS'flat'
p89
I5
sS'successful'
p90
I4
sS'oscar'
p91
I3
sS'company'
p92
I3
sS'charming'
p93
I9
sS'warm'
p94
I3
sS'loose'
p95
I3
sS'excellent'
p96
I6
sS'women'
p97
I5
sS'none'
p98
I4
sS'hour'
p99
I3
sS'melodrama'
p100
I4
sS'movies'
p101
I18
sS'indescribably'
p102
I3
sS'mr'
p103
I3
sS'abandon'
p104
I3
sS'making'
p105
I3
sS'history'
p106
I3
sS'beautiful'
p107
I8
sS'heart'
p108
I3
sS'ingenuity'
p109
I3
sS'high'
p110
I5
sS'something'
p111
I10
sS'sense'
p112
I3
sS'honest'
p113
I4
sS'huge'
p114
I4
sS'lacks'
p115
I3
sS'end'
p116
I8
sS'daring'
p117
I3
sS'sit'
p118
I3
sS'rather'
p119
I6
sS'poetry'
p120
I3
sS'far'
p121
I6
sS'occasionally'
p122
I3
sS'instead'
p123
I3
sS'comedy'
p124
I29
sS'intelligent'
p125
I6
sS'ensemble'
p126
I3
sS'fare'
p127
I3
sS'spielberg'
p128
I3
sS'beauty'
p129
I4
sS'mess'
p130
I8
sS'collection'
p131
I4
sS'coming'
p132
I5
sS'such'
p133
I8
sS'cheaper'
p134
I3
sS'man'
p135
I5
sS'contrived'
p136
I4
sS'short'
p137
I5
sS'attempt'
p138
I4
sS'remember'
p139
I3
sS'redundant'
p140
I4
sS'tale'
p141
I5
sS'cliches'
p142
I3
sS'enter'
p143
I3
sS'worst'
p144
I9
sS'playing'
p145
I3
sS'move'
p146
I5
sS'years'
p147
I10
sS'telling'
p148
I3
sS'through'
p149
I18
sS'looks'
p150
I5
sS'still'
p151
I7
sS'before'
p152
I7
sS'perfect'
p153
I4
sS'style'
p154
I4
sS'comedic'
p155
I3
sS'interesting'
p156
I11
sS'll'
p157
I3
sS'writing'
p158
I5
sS'better'
p159
I5
sS'production'
p160
I5
sS'compelling'
p161
I4
sS'astonish'
p162
I3
sS'instantly'
p163
I3
sS'someone'
p164
I4
sS'material'
p165
I9
sS'touching'
p166
I5
sS'half'
p167
I6
sS'not'
p168
I26
sS'downright'
p169
I4
sS'realize'
p170
I3
sS'nor'
p171
I3
sS'incoherent'
p172
I4
sS'easily'
p173
I3
sS'term'
p174
I3
sS'opera'
p175
I4
sS'always'
p176
I3
sS'unpredictable'
p177
I5
sS'each'
p178
I3
sS'entirely'
p179
I5
sS'heavy'
p180
I3
sS'everyone'
p181
I3
sS'meaningless'
p182
I4
sS'series'
p183
I4
sS'energy'
p184
I5
sS'hard'
p185
I7
sS'idea'
p186
I6
sS'masterful'
p187
I4
sS'engaging'
p188
I6
sS'filmmaking'
p189
I6
sS'girl'
p190
I3
sS'beyond'
p191
I6
sS'really'
p192
I12
sS'ultimately'
p193
I7
sS'entertainment'
p194
I3
sS'quality'
p195
I3
sS'since'
p196
I4
sS'looking'
p197
I4
sS're'
p198
I5
sS'acting'
p199
I8
sS'stuff'
p200
I3
sS'sustain'
p201
I3
sS'hilarious'
p202
I8
sS'formula'
p203
I5
sS'slapdash'
p204
I4
sS'written'
p205
I5
sS'story'
p206
I15
sS'quite'
p207
I4
sS'completely'
p208
I4
sS'masterpiece'
p209
I3
sS'complicated'
p210
I3
sS'imagine'
p211
I4
sS'put'
p212
I4
sS'care'
p213
I6
sS'scary'
p214
I4
sS'terrible'
p215
I3
sS'british'
p216
I3
sS'times'
p217
I3
sS'creates'
p218
I3
sS'thing'
p219
I6
sS'american'
p220
I5
sS'shred'
p221
I4
sS'place'
p222
I3
sS'already'
p223
I4
sS'features'
p224
I3
sS'feel'
p225
I11
sS'powerful'
p226
I7
sS'inventive'
p227
I3
sS'done'
p228
I3
sS'fast'
p229
I3
sS'another'
p230
I9
sS'impossible'
p231
I3
sS'comic'
p232
I5
sS'miss'
p233
I3
sS'cheesy'
p234
I3
sS'little'
p235
I13
sS'script'
p236
I4
sS'festival'
p237
I3
sS'murky'
p238
I4
sS'structured'
p239
I3
sS'anyone'
p240
I7
sS'wonderful'
p241
I4
sS'too'
p242
I18
sS'hollywood'
p243
I3
sS'final'
p244
I4
sS'painful'
p245
I7
sS'gives'
p246
I5
sS'eyes'
p247
I3
sS'season'
p248
I3
sS'shallow'
p249
I3
sS'rrb'
p250
I9
sS'depressing'
p251
I3
sS'predictable'
p252
I3
sS'off'
p253
I9
sS'believe'
p254
I4
sS'convinced'
p255
I3
sS'grace'
p256
I3
sS'character'
p257
I7
sS'kind'
p258
I9
sS'boring'
p259
I4
sS'dialogue'
p260
I8
sS'scenes'
p261
I6
sS'matter'
p262
I3
sS'silly'
p263
I5
sS'were'
p264
I4
sS'feeling'
p265
I3
sS'screenplay'
p266
I4
sS'ages'
p267
I3
sS'pedestrian'
p268
I3
sS'suspense'
p269
I3
sS'manner'
p270
I3
sS'close'
p271
I4
sS'seen'
p272
I5
sS'seem'
p273
I3
sS'saw'
p274
I5
sS'thoroughly'
p275
I3
sS'editing'
p276
I3
sS'terrific'
p277
I5
sS'mix'
p278
I3
sS'edge'
p279
I5
sS'take'
p280
I3
sS'performance'
p281
I15
sS'soap'
p282
I5
sS'urge'
p283
I3
sS'begin'
p284
I3
sS'sure'
p285
I3
sS'critics'
p286
I5
sS'keeps'
p287
I5
sS'cinematic'
p288
I9
sS'charm'
p289
I7
sS'pair'
p290
I3
sS'why'
p291
I10
sS'thriller'
p292
I10
sS'especially'
p293
I6
sS'failure'
p294
I4
sS'performances'
p295
I22
sS'splendid'
p296
I3
sS'psychological'
p297
I4
sS'face'
p298
I3
sS'entertaining'
p299
I16
sS'fact'
p300
I4
sS'shot'
p301
I5
sS'crap'
p302
I5
sS'bring'
p303
I4
sS'ripoff'
p304
I3
sS'fine'
p305
I6
sS'find'
p306
I4
sS'make'
p307
I14
sS'inspiring'
p308
I3
sS'slow'
p309
I4
sS'painfully'
p310
I3
sS'treasure'
p311
I3
sS'fans'
p312
I3
sS'should'
p313
I10
sS'moments'
p314
I7
sS'going'
p315
I5
sS'black'
p316
I4
sS'hope'
p317
I3
sS'above'
p318
I3
sS'watching'
p319
I4
sS'familiar'
p320
I3
sS'watch'
p321
I10
sS'truly'
p322
I8
sS'feels'
p323
I6
sS'made'
p324
I19
sS'nearly'
p325
I8
sS'timing'
p326
I3
sS'during'
p327
I3
sS'nasty'
p328
I3
sS'ita'
p329
I3
sS'insulting'
p330
I3
sS'jokes'
p331
I3
sS'bad'
p332
I26
sS'stupid'
p333
I4
sS'including'
p334
I4
sS'where'
p335
I4
sS'set'
p336
I3
sS'art'
p337
I3
sS'disaster'
p338
I4
sS'fascinating'
p339
I11
sS'intelligence'
p340
I5
sS'seat'
p341
I4
sS'culture'
p342
I4
sS'portrait'
p343
I4
sS'best'
p344
I14
sS'subject'
p345
I3
sS'fails'
p346
I5
sS'satisfying'
p347
I3
sS'ofasequel'
p348
I3
sS'spirits'
p349
I3
sS'gags'
p350
I3
sS'inappropriate'
p351
I3
sS'movie'
p352
I85
sS'away'
p353
I3
sS'enough'
p354
I9
sS'score'
p355
I3
sS'horrible'
p356
I3
sS'probably'
p357
I3
sS'across'
p358
I3
sS'lazy'
p359
I3
sS'never'
p360
I12
sS'ability'
p361
I3
sS'screen'
p362
I5
sS'weak'
p363
I3
sS'job'
p364
I4
sS'french'
p365
I3
sS'both'
p366
I10
sS'last'
p367
I7
sS'talented'
p368
I5
sS'many'
p369
I19
sS'barely'
p370
I4
sS'disappointment'
p371
I3
sS'whole'
p372
I5
sS'comes'
p373
I8
sS'among'
p374
I3
sS'tone'
p375
I5
sS'point'
p376
I6
sS'had'
p377
I7
sS'acted'
p378
I3
sS'crafted'
p379
I5
sS'actually'
p380
I5
sS'classic'
p381
I3
sS'political'
p382
I3
sS'three'
p383
I3
sS'been'
p384
I15
sS'much'
p385
I12
sS'interest'
p386
I4
sS'expected'
p387
I3
sS'feelgood'
p388
I3
sS'empty'
p389
I3
sS'wants'
p390
I3
sS'direction'
p391
I5
sS'filmmaker'
p392
I4
sS'offers'
p393
I3
sS'imax'
p394
I3
sS'those'
p395
I7
sS'case'
p396
I3
sS'vapid'
p397
I4
sS'solid'
p398
I7
sS'sex'
p399
I4
sS'value'
p400
I3
sS'pretentious'
p401
I5
sS'cast'
p402
I12
sS'while'
p403
I3
sS'fun'
p404
I8
sS'real'
p405
I9
sS'almost'
p406
I6
sS'twists'
p407
I3
sS'surprisingly'
p408
I5
sS'cant'
p409
I3
sS'good'
p410
I26
sS'audiences'
p411
I6
sS'beautifully'
p412
I8
sS'funny'
p413
I28
sS'breathtakingly'
p414
I3
sS'rooting'
p415
I4
sS'things'
p416
I6
sS'realizing'
p417
I3
sS'same'
p418
I4
sS'dickens'
p419
I3
sS'gets'
p420
I4
sS'privileged'
p421
I3
sS'grandeur'
p422
I3
sS'difficult'
p423
I3
sS'director'
p424
I10
sS'devoid'
p425
I7
sS'moving'
p426
I13
sS'preachy'
p427
I3
sS'characters'
p428
I13
sS'recent'
p429
I4
sS'theater'
p430
I3
sS'spent'
p431
I4
sS'without'
p432
I13
sS'greatest'
p433
I3
sS'theatres'
p434
I3
sS'summer'
p435
I4
sS'less'
p436
I10
sS'being'
p437
I14
sS'money'
p438
I4
sS'transforms'
p439
I3
sS'human'
p440
I3
sS'stunt'
p441
I3
sS'yet'
p442
I7
sS'seems'
p443
I4
sS'easy'
p444
I6
sS'sweet'
p445
I4
sS'actors'
p446
I12
sS'has'
p447
I35
sS'humanity'
p448
I3
sS'amusing'
p449
I6
sS'narcissism'
p450
I3
sS'shapeless'
p451
I4
sS'casting'
p452
I4
sS'around'
p453
I5
sS'lacking'
p454
I3
sS'ops'
p455
I3
sS'read'
p456
I3
sS'big'
p457
I6
sS'possible'
p458
I3
sS'dark'
p459
I3
sS'possibly'
p460
I4
sS'game'
p461
I4
sS'know'
p462
I4
sS'world'
p463
I5
sS'apart'
p464
I4
sS'dignity'
p465
I3
sS'like'
p466
I25
sS'obvious'
p467
I5
sS'audience'
p468
I9
sS'stylish'
p469
I5
sS'works'
p470
I3
sS'right'
p471
I6
sS'old'
p472
I10
sS'often'
p473
I8
sS'crowd'
p474
I3
sS'people'
p475
I10
sS'bore'
p476
I3
sS'humor'
p477
I11
sS'witty'
p478
I3
sS'everything'
p479
I5
sS'does'
p480
I19
sS'epic'
p481
I3
sS'christmas'
p482
I3
sS'core'
p483
I3
sS'run'
p484
I4
sS'power'
p485
I3
sS'nowhere'
p486
I4
sS'become'
p487
I6
sS'losing'
p488
I3
sS'memorable'
p489
I6
sS'exciting'
p490
I3
sS'intense'
p491
I3
sS'vivid'
p492
I3
sS'central'
p493
I3
sS'anything'
p494
I4
sS'violence'
p495
I4
sS'drama'
p496
I16
sS'deserves'
p497
I4
sS'act'
p498
I3
sS'crass'
p499
I3
sS'documentary'
p500
I11
sS'road'
p501
I4
sS'seeing'
p502
I4
sS'own'
p503
I9
sS'garbage'
p504
I3
sS'down'
p505
I9
sS'female'
p506
I3
sS'portrayal'
p507
I3
sS'pointless'
p508
I5
sS'rushed'
p509
I3
sS'long'
p510
I14
sS'mindless'
p511
I3
sS'low'
p512
I8
sS'lot'
p513
I4
sS'quirky'
p514
I3
sS'head'
p515
I3
sS'gorgeous'
p516
I7
sS'seagal'
p517
I3
sS'hamfisted'
p518
I3
sS'delivers'
p519
I3
sS'trying'
p520
I3
sS'dull'
p521
I11
sS'directed'
p522
I3
sS'waste'
p523
I3
sS'romantic'
p524
I6
sS'heartwarming'
p525
I3
sS'us'
p526
I10
sS'stories'
p527
I5
sS'emotional'
p528
I4
sS'piece'
p529
I11
sS'minutes'
p530
I14
sS'devastating'
p531
I3
sS'cinema'
p532
I5
sS'showtime'
p533
I3
sS'certain'
p534
I3
sS'life'
p535
I14
sS'deep'
p536
I3
sS'single'
p537
I4
sS'proves'
p538
I3
sS'film'
p539
I81
sS'again'
p540
I5
sS'no'
p541
I9
sS'deadly'
p542
I3
sS'actor'
p543
I6
sS'reality'
p544
I3
sS'role'
p545
I4
sS'ambitious'
p546
I3
sS'behold'
p547
I3
sS'nt'
p548
I32
sS'hoffman'
p549
I3
sS'poor'
p550
I4
sS'picture'
p551
I6
sS'star'
p552
I6
sS'narrative'
p553
I3
sS'utterly'
p554
I3
sS'fresh'
p555
I3
sS'sides'
p556
I3
sS'ago'
p557
I5
sS'values'
p558
I4
sS'age'
p559
I4
sS'together'
p560
I3
sS'having'
p561
I4
sS'hugely'
p562
I3
sS'time'
p563
I15
sS'serious'
p564
I3
sS'original'
p565
I6
sS'once'
p566
I3
s.