(dp0
S''
p1
I487
sS'concept'
p2
I3
sS'less'
p3
I10
sS'being'
p4
I13
sS'money'
p5
I4
sS'move'
p6
I3
sS'years'
p7
I5
sS'awful'
p8
I3
sS'own'
p9
I7
sS'through'
p10
I12
sS'rushed'
p11
I3
sS'ripoff'
p12
I3
sS'still'
p13
I5
sS'before'
p14
I3
sS'slow'
p15
I3
sS'everything'
p16
I3
sS'interesting'
p17
I6
sS'had'
p18
I3
sS'acting'
p19
I4
sS'including'
p20
I4
sS'should'
p21
I8
sS'better'
p22
I3
sS'moments'
p23
I3
sS'production'
p24
I4
sS'thinness'
p25
I3
sS'nor'
p26
I3
sS'easy'
p27
I5
sS'under'
p28
I4
sS'watching'
p29
I3
sS'has'
p30
I12
sS'worth'
p31
I5
sS'hope'
p32
I3
sS'narcissism'
p33
I3
sS'shapeless'
p34
I4
sS'lrb'
p35
I5
sS'around'
p36
I3
sS'ops'
p37
I3
sS'very'
p38
I13
sS'material'
p39
I6
sS'watch'
p40
I9
sS'mess'
p41
I7
sS'sloppy'
p42
I4
sS'rrb'
p43
I4
sS'possibly'
p44
I3
sS'feels'
p45
I6
sS'made'
p46
I11
sS'every'
p47
I6
sS'nearly'
p48
I6
sS'half'
p49
I5
sS'not'
p50
I20
sS'stunt'
p51
I3
sS'nasty'
p52
I3
sS'indescribably'
p53
I3
sS'minute'
p54
I6
sS'apart'
p55
I3
sS'down'
p56
I5
sS'comedy'
p57
I9
sS'incoherent'
p58
I4
sS'opera'
p59
I4
sS'die'
p60
I3
sS'relentlessly'
p61
I3
sS'jokes'
p62
I3
sS'bad'
p63
I26
sS'stupid'
p64
I4
sS'mindless'
p65
I3
sS'entirely'
p66
I4
sS'funny'
p67
I5
sS'enjoy'
p68
I4
sS'right'
p69
I3
sS'old'
p70
I6
sS'often'
p71
I3
sS'people'
p72
I6
sS'meaningless'
p73
I4
sS'folds'
p74
I3
sS'hard'
p75
I3
sS'inconsequential'
p76
I3
sS'sex'
p77
I3
sS'past'
p78
I5
sS'full'
p79
I3
sS'waiting'
p80
I4
sS'pass'
p81
I3
sS'close'
p82
I4
sS'bore'
p83
I3
sS'pretentious'
p84
I5
sS'seems'
p85
I3
sS'fails'
p86
I5
sS'humor'
p87
I5
sS'gags'
p88
I3
sS'inappropriate'
p89
I3
sS'deeply'
p90
I3
sS'audience'
p91
I4
sS'kind'
p92
I5
sS'cast'
p93
I4
sS'looking'
p94
I4
sS're'
p95
I4
sS'enough'
p96
I5
sS'does'
p97
I15
sS'sustain'
p98
I3
sS'goes'
p99
I3
sS'horrible'
p100
I3
sS'values'
p101
I3
sS'slapdash'
p102
I4
sS'poorly'
p103
I5
sS'across'
p104
I3
sS'involved'
p105
I3
sS'lazy'
p106
I3
sS'men'
p107
I3
sS'run'
p108
I3
sS'screen'
p109
I3
sS'never'
p110
I8
sS'weak'
p111
I3
sS'story'
p112
I6
sS'here'
p113
I7
sS'quite'
p114
I3
sS'hours'
p115
I4
sS'deadly'
p116
I3
sS'completely'
p117
I3
sS'insulting'
p118
I3
sS'nowhere'
p119
I4
sS'put'
p120
I4
sS'crap'
p121
I5
sS'along'
p122
I3
sS'sequelforthesake'
p123
I3
sS'care'
p124
I3
sS'both'
p125
I3
sS'great'
p126
I6
sS'last'
p127
I4
sS'talented'
p128
I3
sS'anything'
p129
I4
sS'many'
p130
I12
sS'violence'
p131
I4
sS'terrible'
p132
I3
sS'experience'
p133
I6
sS'times'
p134
I3
sS'shred'
p135
I4
sS'disappointment'
p136
I3
sS'act'
p137
I3
sS'action'
p138
I9
sS'crass'
p139
I3
sS'makes'
p140
I5
sS'comes'
p141
I6
sS'heavy'
p142
I3
sS'already'
p143
I4
sS'utterly'
p144
I3
sS'garbage'
p145
I3
sS'point'
p146
I4
sS'feel'
p147
I4
sS'character'
p148
I4
sS'brought'
p149
I3
sS'wit'
p150
I3
sS'long'
p151
I10
sS'another'
p152
I6
sS'such'
p153
I3
sS'art'
p154
I3
sS'pointless'
p155
I5
sS'cheesy'
p156
I3
sS'disaster'
p157
I4
sS'idea'
p158
I5
sS'plot'
p159
I8
sS'little'
p160
I9
sS'flaws'
p161
I3
sS'script'
p162
I4
sS'murky'
p163
I4
sS'tired'
p164
I3
sS'direction'
p165
I4
sS'been'
p166
I10
sS'anyone'
p167
I5
sS'few'
p168
I3
sS'much'
p169
I7
sS'too'
p170
I17
sS'lot'
p171
I3
sS'films'
p172
I7
sS'black'
p173
I3
sS'extreme'
p174
I3
sS'final'
p175
I4
sS'empty'
p176
I3
sS'low'
p177
I8
sS'flat'
p178
I5
sS'life'
p179
I5
sS'collection'
p180
I3
sS'scary'
p181
I3
sS'believe'
p182
I4
sS'shallow'
p183
I3
sS'filmmaker'
p184
I3
sS'depressing'
p185
I3
sS'failure'
p186
I4
sS'hamfisted'
p187
I3
sS'loose'
p188
I3
sS'frida'
p189
I3
sS'off'
p190
I7
sS'trying'
p191
I3
sS'convinced'
p192
I3
sS'dull'
p193
I11
sS'case'
p194
I3
sS'none'
p195
I4
sS'waste'
p196
I3
sS'sit'
p197
I3
sS'hour'
p198
I3
sS'vapid'
p199
I4
sS'boring'
p200
I4
sS'editing'
p201
I3
sS'dialogue'
p202
I6
sS'scenes'
p203
I3
sS'us'
p204
I3
sS'movie'
p205
I50
sS'ugly'
p206
I4
sS'obvious'
p207
I5
sS'painful'
p208
I4
sS'were'
p209
I3
sS'abandon'
p210
I3
sS'more'
p211
I15
sS'minutes'
p212
I12
sS'instead'
p213
I3
sS'barely'
p214
I4
sS'ingenuity'
p215
I3
sS'almost'
p216
I4
sS'head'
p217
I3
sS'high'
p218
I4
sS'pedestrian'
p219
I3
sS'cant'
p220
I3
sS'good'
p221
I9
sS'audiences'
p222
I4
sS'something'
p223
I5
sS'stories'
p224
I3
sS'lacks'
p225
I3
sS'movies'
p226
I6
sS'film'
p227
I32
sS'worse'
p228
I5
sS'again'
p229
I3
sS'end'
p230
I5
sS'no'
p231
I9
sS'rather'
p232
I5
sS'saw'
p233
I4
sS'realizing'
p234
I3
sS'sitting'
p235
I3
sS'same'
p236
I3
sS'actors'
p237
I6
sS'amusing'
p238
I3
sS'silly'
p239
I5
sS'really'
p240
I8
sS'nt'
p241
I25
sS'soap'
p242
I5
sS'poor'
p243
I4
sS'urge'
p244
I3
sS'begin'
p245
I3
sS'sure'
p246
I3
sS'huge'
p247
I3
sS'critics'
p248
I5
sS'enter'
p249
I3
sS'cinematic'
p250
I3
sS'possible'
p251
I3
sS'director'
p252
I4
sS'devoid'
p253
I7
sS'charm'
p254
I3
sS'preachy'
p255
I3
sS'characters'
p256
I8
sS'coming'
p257
I3
sS'ofasequel'
p258
I3
sS'cheaper'
p259
I3
sS'why'
p260
I9
sS'thriller'
p261
I3
sS'contrived'
p262
I4
sS'attempt'
p263
I4
sS'especially'
p264
I4
sS'seagal'
p265
I3
sS'documentary'
p266
I3
sS'rooting'
p267
I4
sS'spent'
p268
I4
sS'redundant'
p269
I4
sS'original'
p270
I4
sS'like'
p271
I17
sS'cliches'
p272
I3
sS'without'
p273
I7
sS'time'
p274
I9
sS'theatres'
p275
I3
sS'worst'
p276
I9
sS'entertaining'
p277
I3
sS'make'
p278
I7
sS'know'
p279
I3
s.