(dp0
S''
p1
I470
sS'shot'
p2
I3
sS'remarkable'
p3
I3
sS'seeing'
p4
I3
sS'moments'
p5
I4
sS'young'
p6
I7
sS'suspenseful'
p7
I3
sS'years'
p8
I5
sS'enjoyable'
p9
I9
sS'thoughtful'
p10
I3
sS'through'
p11
I6
sS'looks'
p12
I4
sS'intricate'
p13
I3
sS'tone'
p14
I4
sS'fine'
p15
I4
sS'yet'
p16
I5
sS'before'
p17
I4
sS'perfect'
p18
I4
sS'whose'
p19
I3
sS'style'
p20
I4
sS'mix'
p21
I3
sS'interesting'
p22
I5
sS'treasure'
p23
I3
sS'character'
p24
I3
sS'acting'
p25
I4
sS'writing'
p26
I3
sS'finally'
p27
I5
sS'offers'
p28
I3
sS'compelling'
p29
I4
sS'astonish'
p30
I3
sS'sweet'
p31
I3
sS'has'
p32
I23
sS'humanity'
p33
I3
sS'take'
p34
I3
sS'real'
p35
I7
sS'lrb'
p36
I6
sS'casting'
p37
I3
sS'drama'
p38
I14
sS'very'
p39
I6
sS'big'
p40
I4
sS'material'
p41
I3
sS'truly'
p42
I6
sS'touching'
p43
I5
sS'every'
p44
I3
sS'makes'
p45
I5
sS'formula'
p46
I3
sS'not'
p47
I6
sS'world'
p48
I4
sS'like'
p49
I8
sS'dignity'
p50
I3
sS'impressive'
p51
I3
sS'edge'
p52
I4
sS'piece'
p53
I9
sS'unpredictable'
p54
I5
sS'audience'
p55
I5
sS'engrossing'
p56
I3
sS'delightfully'
p57
I3
sS'works'
p58
I3
sS'documentary'
p59
I8
sS'right'
p60
I3
sS'old'
p61
I4
sS'another'
p62
I3
sS'fascinating'
p63
I10
sS'people'
p64
I4
sS'intelligence'
p65
I3
sS'energy'
p66
I5
sS'hard'
p67
I4
sS'rrb'
p68
I5
sS'seat'
p69
I4
sS'engaging'
p70
I6
sS'culture'
p71
I4
sS'full'
p72
I5
sS'value'
p73
I3
sS'filmmaking'
p74
I5
sS'portrait'
p75
I4
sS'girl'
p76
I3
sS'beyond'
p77
I4
sS'best'
p78
I13
sS'really'
p79
I4
sS'ultimately'
p80
I7
sS'humor'
p81
I6
sS'spirits'
p82
I3
sS'surprisingly'
p83
I4
sS'cast'
p84
I8
sS'deeply'
p85
I9
sS'away'
p86
I3
sS'witty'
p87
I3
sS'enough'
p88
I4
sS'does'
p89
I4
sS'hilarious'
p90
I8
sS'going'
p91
I3
sS'new'
p92
I6
sS'epic'
p93
I3
sS'ever'
p94
I7
sS'men'
p95
I4
sS'ability'
p96
I3
sS'power'
p97
I3
sS'written'
p98
I4
sS'masterful'
p99
I4
sS'never'
p100
I4
sS'story'
p101
I9
sS'french'
p102
I3
sS'daring'
p103
I3
sS'entertain'
p104
I3
sS'complicated'
p105
I3
sS'recent'
p106
I3
sS'stylish'
p107
I5
sS'memorable'
p108
I5
sS'strong'
p109
I3
sS'intense'
p110
I3
sS'care'
p111
I3
sS'both'
p112
I7
sS'great'
p113
I9
sS'inspiring'
p114
I3
sS'last'
p115
I3
sS'brilliant'
p116
I5
sS'many'
p117
I7
sS'study'
p118
I4
sS'psychological'
p119
I4
sS'job'
p120
I3
sS'experience'
p121
I3
sS'honest'
p122
I4
sS'creates'
p123
I3
sS'credit'
p124
I3
sS'american'
p125
I5
sS'masterpiece'
p126
I3
sS'action'
p127
I4
sS'moving'
p128
I13
sS'whole'
p129
I3
sS'among'
p130
I3
sS'love'
p131
I9
sS'features'
p132
I3
sS'family'
p133
I6
sS'feel'
p134
I7
sS'had'
p135
I4
sS'powerful'
p136
I7
sS'highly'
p137
I6
sS'down'
p138
I4
sS'unexpected'
p139
I3
sS'done'
p140
I3
sS'long'
p141
I4
sS'crafted'
p142
I5
sS'sexy'
p143
I4
sS'portrayal'
p144
I3
sS'comic'
p145
I4
sS'actually'
p146
I5
sS'often'
p147
I5
sS'little'
p148
I4
sS'vivid'
p149
I3
sS'become'
p150
I4
sS'cinema'
p151
I3
sS'political'
p152
I3
sS'been'
p153
I5
sS'much'
p154
I5
sS'gorgeous'
p155
I7
sS'films'
p156
I6
sS'quirky'
p157
I3
sS'hollywood'
p158
I3
sS'feelgood'
p159
I3
sS'today'
p160
I3
sS'gives'
p161
I3
sS'life'
p162
I9
sS'inventive'
p163
I3
sS'successful'
p164
I4
sS'oscar'
p165
I3
sS'hoffman'
p166
I3
sS'intelligent'
p167
I5
sS'charming'
p168
I8
sS'warm'
p169
I3
sS'imax'
p170
I3
sS'excellent'
p171
I6
sS'grace'
p172
I3
sS'those'
p173
I5
sS'women'
p174
I3
sS'kind'
p175
I4
sS'made'
p176
I8
sS'romantic'
p177
I4
sS'solid'
p178
I7
sS'heartwarming'
p179
I3
sS'melodrama'
p180
I4
sS'scenes'
p181
I3
sS'us'
p182
I7
sS'movie'
p183
I35
sS'movies'
p184
I12
sS'while'
p185
I3
sS'painful'
p186
I3
sS'fun'
p187
I6
sS'emotional'
p188
I4
sS'more'
p189
I15
sS'history'
p190
I3
sS'beautiful'
p191
I8
sS'heart'
p192
I3
sS'classic'
p193
I3
sS'certain'
p194
I3
sS'beautifully'
p195
I8
sS'ages'
p196
I3
sS'eyes'
p197
I3
sS'female'
p198
I3
sS'good'
p199
I17
sS'something'
p200
I5
sS'sense'
p201
I3
sS'seen'
p202
I3
sS'keep'
p203
I4
sS'film'
p204
I49
sS'funny'
p205
I23
sS'end'
p206
I3
sS'breathtakingly'
p207
I3
sS'thing'
p208
I4
sS'things'
p209
I4
sS'make'
p210
I7
sS'actor'
p211
I4
sS'reality'
p212
I3
sS'terrific'
p213
I5
sS'far'
p214
I4
sS'occasionally'
p215
I3
sS'actors'
p216
I6
sS'amusing'
p217
I3
sS'dickens'
p218
I3
sS'performance'
p219
I13
sS'behold'
p220
I3
sS'comedy'
p221
I20
sS'nt'
p222
I7
sS'privileged'
p223
I3
sS'grandeur'
p224
I3
sS'fare'
p225
I3
sS'picture'
p226
I4
sS'spielberg'
p227
I3
sS'star'
p228
I4
sS'beauty'
p229
I3
sS'wonderful'
p230
I4
sS'keeps'
p231
I3
sS'cinematic'
p232
I6
sS'director'
p233
I6
sS'charm'
p234
I4
sS'characters'
p235
I5
sS'such'
p236
I5
sS'sides'
p237
I3
sS'thriller'
p238
I7
sS'man'
p239
I4
sS'ago'
p240
I3
sS'short'
p241
I3
sS'splendid'
p242
I3
sS'performances'
p243
I21
sS'age'
p244
I4
sS'crowd'
p245
I3
sS'tale'
p246
I5
sS'without'
p247
I6
sS'hugely'
p248
I3
sS'time'
p249
I6
sS'fresh'
p250
I3
sS'entertaining'
p251
I13
s.